Archive member included to satisfy reference by file (symbol)

/usr/lib/gcc/arm-none-eabi/9.2.1/libgcc.a(_udivsi3.o)
                              build/stdio.o (__aeabi_uidiv)
/usr/lib/gcc/arm-none-eabi/9.2.1/libgcc.a(_dvmd_tls.o)
                              /usr/lib/gcc/arm-none-eabi/9.2.1/libgcc.a(_udivsi3.o) (__aeabi_idiv0)

Memory Configuration

Name             Origin             Length             Attributes
*default*        0x0000000000000000 0xffffffffffffffff

Linker script and memory map

LOAD build/Entry.os
LOAD build/Nacho.o
LOAD build/Regs.o
LOAD build/Uart.o
LOAD build/stdio.o
LOAD /usr/lib/gcc/arm-none-eabi/9.2.1/libgcc.a
                0x0000000000000000                . = 0x0

.text           0x0000000000000000      0x87c
 *(vector_start)
 *(.text .rodata)
 .text          0x0000000000000000       0xd4 build/Entry.os
                0x0000000000000000                vector_start
                0x000000000000003c                vector_end
 .text          0x00000000000000d4       0xc0 build/Nacho.o
                0x00000000000000d4                nacho
 .rodata        0x0000000000000194       0x2c build/Nacho.o
 .text          0x00000000000001c0        0x0 build/Regs.o
 .text          0x00000000000001c0      0x158 build/Uart.o
                0x00000000000001c0                Hal_uart_init
                0x0000000000000238                Hal_uart_put_char
                0x0000000000000294                Hal_uart_get_char
 .text          0x0000000000000318      0x444 build/stdio.o
                0x0000000000000318                putstr
                0x0000000000000378                debug_printf
                0x00000000000003c8                vsprintf
                0x0000000000000648                utoa
 .rodata        0x000000000000075c        0x7 build/stdio.o
 *fill*         0x0000000000000763        0x1 
 .text          0x0000000000000764      0x114 /usr/lib/gcc/arm-none-eabi/9.2.1/libgcc.a(_udivsi3.o)
                0x0000000000000764                __udivsi3
                0x0000000000000764                __aeabi_uidiv
                0x0000000000000858                __aeabi_uidivmod
 .text          0x0000000000000878        0x4 /usr/lib/gcc/arm-none-eabi/9.2.1/libgcc.a(_dvmd_tls.o)
                0x0000000000000878                __aeabi_ldiv0
                0x0000000000000878                __aeabi_idiv0

.glue_7         0x000000000000087c        0x0
 .glue_7        0x000000000000087c        0x0 linker stubs

.glue_7t        0x000000000000087c        0x0
 .glue_7t       0x000000000000087c        0x0 linker stubs

.vfp11_veneer   0x000000000000087c        0x0
 .vfp11_veneer  0x000000000000087c        0x0 linker stubs

.v4_bx          0x000000000000087c        0x0
 .v4_bx         0x000000000000087c        0x0 linker stubs

.iplt           0x000000000000087c        0x0
 .iplt          0x000000000000087c        0x0 build/Entry.os

.rel.dyn        0x000000000000087c        0x0
 .rel.iplt      0x000000000000087c        0x0 build/Entry.os

.data           0x000000000000087c        0x4
 *(.data)
 .data          0x000000000000087c        0x0 build/Entry.os
 .data          0x000000000000087c        0x0 build/Nacho.o
 .data          0x000000000000087c        0x4 build/Regs.o
                0x000000000000087c                Uart
 .data          0x0000000000000880        0x0 build/Uart.o
 .data          0x0000000000000880        0x0 build/stdio.o
 .data          0x0000000000000880        0x0 /usr/lib/gcc/arm-none-eabi/9.2.1/libgcc.a(_udivsi3.o)
 .data          0x0000000000000880        0x0 /usr/lib/gcc/arm-none-eabi/9.2.1/libgcc.a(_dvmd_tls.o)

.igot.plt       0x0000000000000880        0x0
 .igot.plt      0x0000000000000880        0x0 build/Entry.os

.bss            0x0000000000000880      0x400
 *(.bss)
 .bss           0x0000000000000880        0x0 build/Entry.os
 .bss           0x0000000000000880        0x0 build/Nacho.o
 .bss           0x0000000000000880        0x0 build/Regs.o
 .bss           0x0000000000000880        0x0 build/Uart.o
 .bss           0x0000000000000880      0x400 build/stdio.o
 .bss           0x0000000000000c80        0x0 /usr/lib/gcc/arm-none-eabi/9.2.1/libgcc.a(_udivsi3.o)
 .bss           0x0000000000000c80        0x0 /usr/lib/gcc/arm-none-eabi/9.2.1/libgcc.a(_dvmd_tls.o)
OUTPUT(build/nachoos.axf elf32-littlearm)
LOAD linker stubs

.ARM.attributes
                0x0000000000000000       0x2b
 .ARM.attributes
                0x0000000000000000       0x1d build/Entry.os
 .ARM.attributes
                0x000000000000001d       0x2f build/Nacho.o
 .ARM.attributes
                0x000000000000004c       0x2f build/Regs.o
 .ARM.attributes
                0x000000000000007b       0x2f build/Uart.o
 .ARM.attributes
                0x00000000000000aa       0x2f build/stdio.o
 .ARM.attributes
                0x00000000000000d9       0x1c /usr/lib/gcc/arm-none-eabi/9.2.1/libgcc.a(_udivsi3.o)
 .ARM.attributes
                0x00000000000000f5       0x1c /usr/lib/gcc/arm-none-eabi/9.2.1/libgcc.a(_dvmd_tls.o)

.comment        0x0000000000000000       0x59
 .comment       0x0000000000000000       0x59 build/Nacho.o
                                         0x5a (size before relaxing)
 .comment       0x0000000000000059       0x5a build/Regs.o
 .comment       0x0000000000000059       0x5a build/Uart.o
 .comment       0x0000000000000059       0x5a build/stdio.o

.debug_line     0x0000000000000000      0x447
 .debug_line    0x0000000000000000       0x6d build/Entry.os
 .debug_line    0x000000000000006d       0x7a build/Nacho.o
 .debug_line    0x00000000000000e7       0x4e build/Regs.o
 .debug_line    0x0000000000000135       0xd4 build/Uart.o
 .debug_line    0x0000000000000209      0x173 build/stdio.o
 .debug_line    0x000000000000037c       0x74 /usr/lib/gcc/arm-none-eabi/9.2.1/libgcc.a(_udivsi3.o)
 .debug_line    0x00000000000003f0       0x57 /usr/lib/gcc/arm-none-eabi/9.2.1/libgcc.a(_dvmd_tls.o)

.debug_info     0x0000000000000000     0x1ada
 .debug_info    0x0000000000000000       0x26 build/Entry.os
 .debug_info    0x0000000000000026       0xdc build/Nacho.o
 .debug_info    0x0000000000000102      0xb38 build/Regs.o
 .debug_info    0x0000000000000c3a      0xba7 build/Uart.o
 .debug_info    0x00000000000017e1      0x2ad build/stdio.o
 .debug_info    0x0000000000001a8e       0x26 /usr/lib/gcc/arm-none-eabi/9.2.1/libgcc.a(_udivsi3.o)
 .debug_info    0x0000000000001ab4       0x26 /usr/lib/gcc/arm-none-eabi/9.2.1/libgcc.a(_dvmd_tls.o)

.debug_abbrev   0x0000000000000000      0x467
 .debug_abbrev  0x0000000000000000       0x14 build/Entry.os
 .debug_abbrev  0x0000000000000014       0x90 build/Nacho.o
 .debug_abbrev  0x00000000000000a4       0xf8 build/Regs.o
 .debug_abbrev  0x000000000000019c      0x172 build/Uart.o
 .debug_abbrev  0x000000000000030e      0x131 build/stdio.o
 .debug_abbrev  0x000000000000043f       0x14 /usr/lib/gcc/arm-none-eabi/9.2.1/libgcc.a(_udivsi3.o)
 .debug_abbrev  0x0000000000000453       0x14 /usr/lib/gcc/arm-none-eabi/9.2.1/libgcc.a(_dvmd_tls.o)

.debug_aranges  0x0000000000000000       0xd8
 .debug_aranges
                0x0000000000000000       0x20 build/Entry.os
 .debug_aranges
                0x0000000000000020       0x20 build/Nacho.o
 .debug_aranges
                0x0000000000000040       0x18 build/Regs.o
 .debug_aranges
                0x0000000000000058       0x20 build/Uart.o
 .debug_aranges
                0x0000000000000078       0x20 build/stdio.o
 .debug_aranges
                0x0000000000000098       0x20 /usr/lib/gcc/arm-none-eabi/9.2.1/libgcc.a(_udivsi3.o)
 .debug_aranges
                0x00000000000000b8       0x20 /usr/lib/gcc/arm-none-eabi/9.2.1/libgcc.a(_dvmd_tls.o)

.debug_str      0x0000000000000000      0x579
 .debug_str     0x0000000000000000       0x2c build/Entry.os
 .debug_str     0x000000000000002c      0x10e build/Nacho.o
                                        0x13a (size before relaxing)
 .debug_str     0x000000000000013a      0x302 build/Regs.o
                                        0x40d (size before relaxing)
 .debug_str     0x000000000000043c       0x47 build/Uart.o
                                        0x44c (size before relaxing)
 .debug_str     0x0000000000000483       0x78 build/stdio.o
                                        0x198 (size before relaxing)
 .debug_str     0x00000000000004fb       0x7e /usr/lib/gcc/arm-none-eabi/9.2.1/libgcc.a(_udivsi3.o)
                                         0x8a (size before relaxing)
 .debug_str     0x0000000000000579       0x8a /usr/lib/gcc/arm-none-eabi/9.2.1/libgcc.a(_dvmd_tls.o)

.debug_frame    0x0000000000000000      0x1a4
 .debug_frame   0x0000000000000000       0x68 build/Nacho.o
 .debug_frame   0x0000000000000068       0x70 build/Uart.o
 .debug_frame   0x00000000000000d8       0xac build/stdio.o
 .debug_frame   0x0000000000000184       0x20 /usr/lib/gcc/arm-none-eabi/9.2.1/libgcc.a(_udivsi3.o)
